target datalayout = "e-m:e-p270:32:32-p271:32:32-p272:64:64-i64:64-i128:128-f80:128-n8:16:32:64-S128"
target triple = "x86_64-pc-linux-gnu"

; Function Attrs: nounwind uwtable
define dso_local i32 @fullrune(ptr noundef %0, i32 noundef %1) #0 {
  %3 = alloca i32, align 4
  %4 = alloca ptr, align 8
  %5 = alloca i32, align 4
  %6 = alloca i32, align 4
  %7 = alloca i32, align 4
  store ptr %0, ptr %4, align 8, !tbaa !9
  store i32 %1, ptr %5, align 4, !tbaa !11
  %8 = load i32, ptr %5, align 4, !tbaa !11
  %9 = icmp sgt i32 %8, 0
  br i1 %9, label %10, label %40

10:                                               ; preds = %2
  call void @llvm.lifetime.start.p0(i64 4, ptr %6) #2
  %11 = load ptr, ptr %4, align 8, !tbaa !9
  %12 = load i8, ptr %11, align 1, !tbaa !13
  %13 = zext i8 %12 to i32
  store i32 %13, ptr %6, align 4, !tbaa !11
  %14 = load i32, ptr %6, align 4, !tbaa !11
  %15 = icmp slt i32 %14, 128
  br i1 %15, label %16, label %17

16:                                               ; preds = %10
  store i32 1, ptr %3, align 4
  store i32 1, ptr %7, align 4
  br label %37

17:                                               ; preds = %10
  %18 = load i32, ptr %5, align 4, !tbaa !11
  %19 = icmp sgt i32 %18, 1
  br i1 %19, label %20, label %36

20:                                               ; preds = %17
  %21 = load i32, ptr %6, align 4, !tbaa !11
  %22 = icmp slt i32 %21, 224
  br i1 %22, label %23, label %24

23:                                               ; preds = %20
  store i32 1, ptr %3, align 4
  store i32 1, ptr %7, align 4
  br label %37

24:                                               ; preds = %20
  %25 = load i32, ptr %5, align 4, !tbaa !11
  %26 = icmp sgt i32 %25, 2
  br i1 %26, label %27, label %35

27:                                               ; preds = %24
  %28 = load i32, ptr %6, align 4, !tbaa !11
  %29 = icmp slt i32 %28, 240
  br i1 %29, label %33, label %30

30:                                               ; preds = %27
  %31 = load i32, ptr %5, align 4, !tbaa !11
  %32 = icmp sgt i32 %31, 3
  br i1 %32, label %33, label %34

33:                                               ; preds = %30, %27
  store i32 1, ptr %3, align 4
  store i32 1, ptr %7, align 4
  br label %37

34:                                               ; preds = %30
  br label %35

35:                                               ; preds = %34, %24
  br label %36

36:                                               ; preds = %35, %17
  store i32 0, ptr %7, align 4
  br label %37

37:                                               ; preds = %36, %33, %23, %16
  call void @llvm.lifetime.end.p0(i64 4, ptr %6) #2
  %38 = load i32, ptr %7, align 4
  switch i32 %38, label %43 [
    i32 0, label %39
    i32 1, label %41
  ]

39:                                               ; preds = %37
  br label %40

40:                                               ; preds = %39, %2
  store i32 0, ptr %3, align 4
  br label %41

41:                                               ; preds = %40, %37
  %42 = load i32, ptr %3, align 4
  ret i32 %42

43:                                               ; preds = %37
  unreachable
}