; Function Attrs: mustprogress nofree norecurse nosync nounwind willreturn memory(argmem: read) uwtable
define dso_local range(i32 0, 2) i32 @fullrune(ptr noundef readonly captures(none) %0, i32 noundef %1) local_unnamed_addr #3 {
  %3 = icmp sgt i32 %1, 0
  br i1 %3, label %4, label %15

4:                                                ; preds = %2
  %5 = load i8, ptr %0, align 1, !tbaa !4
  %6 = icmp sgt i8 %5, -1
  br i1 %6, label %.thread, label %7

7:                                                ; preds = %4
  %.not = icmp eq i32 %1, 1
  br i1 %.not, label %15, label %8

8:                                                ; preds = %7
  %9 = icmp samesign ult i8 %5, -32
  br i1 %9, label %.thread, label %10

10:                                               ; preds = %8
  %11 = icmp samesign ugt i32 %1, 2
  br i1 %11, label %12, label %15

12:                                               ; preds = %10
  %13 = icmp samesign ult i8 %5, -16
  %14 = icmp ne i32 %1, 3
  %or.cond = or i1 %14, %13
  br i1 %or.cond, label %.thread, label %15

.thread:                                          ; preds = %4, %8, %12
  br label %15

15:                                               ; preds = %2, %7, %12, %10, %.thread
  %.1 = phi i32 [ 1, %.thread ], [ 0, %10 ], [ 0, %12 ], [ 0, %7 ], [ 0, %2 ]
  ret i32 %.1
}